target datalayout = "e-m:e-p270:32:32-p271:32:32-p272:64:64-i64:64-i128:128-f80:128-n8:16:32:64-S128"
target triple = "x86_64-pc-linux-gnu"

; Function Attrs: nounwind uwtable
define dso_local void @changeDependencyOnTablespace(i32 noundef %0, i32 noundef %1, i32 noundef %2) #0 {
  %4 = alloca i32, align 4
  %5 = alloca i32, align 4
  %6 = alloca i32, align 4
  %7 = alloca ptr, align 8
  store i32 %0, ptr %4, align 4
  store i32 %1, ptr %5, align 4
  store i32 %2, ptr %6, align 4
  call void @llvm.lifetime.start.p0(i64 8, ptr %7) #7
  %8 = call ptr @table_open(i32 noundef 1214, i32 noundef 3)
  store ptr %8, ptr %7, align 8
  %9 = load i32, ptr %6, align 4
  %10 = icmp ne i32 %9, 1663
  br i1 %10, label %11, label %19

11:                                               ; preds = %3
  %12 = load i32, ptr %6, align 4
  %13 = icmp ne i32 %12, 0
  br i1 %13, label %14, label %19

14:                                               ; preds = %11
  %15 = load ptr, ptr %7, align 8
  %16 = load i32, ptr %4, align 4
  %17 = load i32, ptr %5, align 4
  %18 = load i32, ptr %6, align 4
  call void @shdepChangeDep(ptr noundef %15, i32 noundef %16, i32 noundef %17, i32 noundef 0, i32 noundef 1213, i32 noundef %18, i32 noundef 116)
  br label %23

19:                                               ; preds = %11, %3
  %20 = load ptr, ptr %7, align 8
  %21 = load i32, ptr %4, align 4
  %22 = load i32, ptr %5, align 4
  call void @shdepDropDependency(ptr noundef %20, i32 noundef %21, i32 noundef %22, i32 noundef 0, i1 noundef zeroext true, i32 noundef 0, i32 noundef 0, i32 noundef 0)
  br label %23

23:                                               ; preds = %19, %14
  %24 = load ptr, ptr %7, align 8
  call void @table_close(ptr noundef %24, i32 noundef 3)
  call void @llvm.lifetime.end.p0(i64 8, ptr %7) #7
  ret void
}