; Function Attrs: nounwind uwtable
define dso_local void @changeDependencyOnTablespace(i32 noundef %0, i32 noundef %1, i32 noundef %2) local_unnamed_addr #0 {
  %4 = tail call ptr @table_open(i32 noundef 1214, i32 noundef 3) #8
  switch i32 %2, label %5 [
    i32 1663, label %6
    i32 0, label %6
  ]

5:                                                ; preds = %3
  tail call fastcc void @shdepChangeDep(ptr noundef %4, i32 noundef %0, i32 noundef %1, i32 noundef 1213, i32 noundef %2, i32 noundef 116)
  br label %7

6:                                                ; preds = %3, %3
  tail call fastcc void @shdepDropDependency(ptr noundef %4, i32 noundef %0, i32 noundef %1, i32 noundef 0, i1 noundef zeroext true, i32 noundef 0, i32 noundef 0, i32 noundef 0)
  br label %7

7:                                                ; preds = %6, %5
  tail call void @table_close(ptr noundef %4, i32 noundef 3) #8
  ret void
}